; Function Attrs: nofree nounwind uwtable
define noalias noundef ptr @Acec_MapXorOuts2(ptr noundef readonly captures(none) %0, ptr noundef readonly captures(none) %1, ptr noundef readonly captures(none) %2) local_unnamed_addr #3 {
  %4 = getelementptr i8, ptr %0, i64 24
  %.val = load i32, ptr %4, align 8, !tbaa !3
  %5 = ashr i32 %.val, 5
  %6 = and i32 %.val, 31
  %7 = icmp ne i32 %6, 0
  %8 = zext i1 %7 to i32
  %9 = add nsw i32 %5, %8
  %10 = tail call noalias dereferenceable_or_null(16) ptr @malloc(i64 noundef 16) #20
  %11 = shl nsw i32 %9, 5
  store i32 %11, ptr %10, align 8, !tbaa !39
  %.not.i.i = icmp eq i32 %9, 0
  br i1 %.not.i.i, label %Vec_BitStart.exit, label %12

12:                                               ; preds = %3
  %13 = sext i32 %9 to i64
  %14 = shl nsw i64 %13, 2
  %15 = tail call noalias ptr @malloc(i64 noundef %14) #20
  br label %Vec_BitStart.exit

Vec_BitStart.exit:                                ; preds = %3, %12
  %.pre-phi8.i = phi i64 [ %14, %12 ], [ 0, %3 ]
  %16 = phi ptr [ %15, %12 ], [ null, %3 ]
  %17 = getelementptr inbounds nuw i8, ptr %10, i64 4
  %18 = getelementptr inbounds nuw i8, ptr %10, i64 8
  store ptr %16, ptr %18, align 8, !tbaa !41
  store i32 %11, ptr %17, align 4, !tbaa !42
  tail call void @llvm.memset.p0.i64(ptr align 4 %16, i8 0, i64 %.pre-phi8.i, i1 false)
  %19 = getelementptr i8, ptr %1, i64 4
  %.val11 = load i32, ptr %19, align 4, !tbaa !28
  %20 = icmp sgt i32 %.val11, 0
  br i1 %20, label %.lr.ph, label %._crit_edge

.lr.ph:                                           ; preds = %Vec_BitStart.exit
  %21 = getelementptr i8, ptr %1, i64 8
  %.val14 = load ptr, ptr %21, align 8, !tbaa !29
  %22 = getelementptr i8, ptr %2, i64 8
  %.val13 = load ptr, ptr %22, align 8, !tbaa !29
  %23 = add nsw i32 %.val11, -1
  %24 = lshr i32 %23, 2
  %25 = add nuw nsw i32 %24, 1
  %wide.trip.count = zext nneg i32 %25 to i64
  br label %26

26:                                               ; preds = %.lr.ph, %40
  %indvars.iv17 = phi i64 [ 0, %.lr.ph ], [ %indvars.iv.next18, %40 ]
  %indvars.iv = phi i64 [ 0, %.lr.ph ], [ %indvars.iv.next, %40 ]
  %27 = getelementptr inbounds nuw i32, ptr %.val14, i64 %indvars.iv
  %28 = load i32, ptr %27, align 4, !tbaa !30
  %29 = sext i32 %28 to i64
  %30 = getelementptr inbounds i32, ptr %.val13, i64 %29
  %31 = load i32, ptr %30, align 4, !tbaa !30
  %.not = icmp eq i32 %31, -1
  br i1 %.not, label %40, label %32

32:                                               ; preds = %26
  %33 = and i32 %28, 31
  %34 = shl nuw i32 1, %33
  %35 = ashr i32 %28, 5
  %36 = sext i32 %35 to i64
  %37 = getelementptr inbounds i32, ptr %16, i64 %36
  %38 = load i32, ptr %37, align 4, !tbaa !30
  %39 = or i32 %38, %34
  store i32 %39, ptr %37, align 4, !tbaa !30
  br label %40

40:                                               ; preds = %26, %32
  %indvars.iv.next18 = add nuw nsw i64 %indvars.iv17, 1
  %indvars.iv.next = add nuw nsw i64 %indvars.iv, 4
  %exitcond.not = icmp eq i64 %indvars.iv.next18, %wide.trip.count
  br i1 %exitcond.not, label %._crit_edge, label %26, !llvm.loop !44

._crit_edge:                                      ; preds = %40, %Vec_BitStart.exit
  ret ptr %10
}